; ModuleID = 'source-C-CXX/30/1220.c'
source_filename = "source-C-CXX/30/1220.c"
target datalayout = "e-m:e-p270:32:32-p271:32:32-p272:64:64-i64:64-f80:128-n8:16:32:64-S128"
target triple = "x86_64-pc-linux-gnu"

%struct.student = type { [20 x i8], [20 x i8], i8, i32, [20 x i8], [30 x i8], %struct.student* }

@n = dso_local local_unnamed_addr global i32 0, align 4
@.str = private unnamed_addr constant [18 x i8] c"%s %s %c %d %s %s\00", align 1
@.str.1 = private unnamed_addr constant [19 x i8] c"%s %s %c %d %s %s\0A\00", align 1

; Function Attrs: nofree nounwind sspstrong uwtable
define dso_local %struct.student* @creat() local_unnamed_addr #0 {
  store i32 0, i32* @n, align 4, !tbaa !5
  %1 = tail call noalias align 16 dereferenceable_or_null(100) i8* @malloc(i64 100) #4
  %2 = bitcast i8* %1 to %struct.student*
  %3 = getelementptr inbounds %struct.student, %struct.student* %2, i64 0, i32 0
  %4 = getelementptr inbounds %struct.student, %struct.student* %2, i64 0, i32 1, i64 0
  %5 = getelementptr inbounds %struct.student, %struct.student* %2, i64 0, i32 2
  %6 = getelementptr inbounds %struct.student, %struct.student* %2, i64 0, i32 3
  %7 = getelementptr inbounds %struct.student, %struct.student* %2, i64 0, i32 4
  %8 = getelementptr inbounds %struct.student, %struct.student* %2, i64 0, i32 5, i64 0
  %9 = tail call i32 (i8*, ...) @__isoc99_scanf(i8* getelementptr inbounds ([18 x i8], [18 x i8]* @.str, i64 0, i64 0), [20 x i8]* %3, i8* nonnull %4, i8* nonnull %5, i32* nonnull %6, [20 x i8]* nonnull %7, i8* nonnull %8)
  %10 = tail call i64 @strlen(i8* noundef nonnull %4) #5
  %11 = icmp eq i64 %10, 0
  br i1 %11, label %31, label %12

12:                                               ; preds = %0, %12
  %13 = phi %struct.student* [ %14, %12 ], [ %2, %0 ]
  %14 = phi %struct.student* [ %21, %12 ], [ %2, %0 ]
  %15 = load i32, i32* @n, align 4, !tbaa !5
  %16 = add nsw i32 %15, 1
  store i32 %16, i32* @n, align 4, !tbaa !5
  %17 = icmp eq i32 %15, 0
  %18 = select i1 %17, %struct.student* null, %struct.student* %13
  %19 = getelementptr inbounds %struct.student, %struct.student* %14, i64 0, i32 6
  store %struct.student* %18, %struct.student** %19, align 8
  %20 = tail call noalias align 16 dereferenceable_or_null(100) i8* @malloc(i64 100) #4
  %21 = bitcast i8* %20 to %struct.student*
  %22 = getelementptr inbounds %struct.student, %struct.student* %21, i64 0, i32 0
  %23 = getelementptr inbounds %struct.student, %struct.student* %21, i64 0, i32 1, i64 0
  %24 = getelementptr inbounds %struct.student, %struct.student* %21, i64 0, i32 2
  %25 = getelementptr inbounds %struct.student, %struct.student* %21, i64 0, i32 3
  %26 = getelementptr inbounds %struct.student, %struct.student* %21, i64 0, i32 4
  %27 = getelementptr inbounds %struct.student, %struct.student* %21, i64 0, i32 5, i64 0
  %28 = tail call i32 (i8*, ...) @__isoc99_scanf(i8* getelementptr inbounds ([18 x i8], [18 x i8]* @.str, i64 0, i64 0), [20 x i8]* %22, i8* nonnull %23, i8* nonnull %24, i32* nonnull %25, [20 x i8]* nonnull %26, i8* nonnull %27)
  %29 = tail call i64 @strlen(i8* noundef nonnull %23) #5
  %30 = icmp eq i64 %29, 0
  br i1 %30, label %31, label %12, !llvm.loop !9

31:                                               ; preds = %12, %0
  %32 = phi %struct.student* [ %2, %0 ], [ %14, %12 ]
  ret %struct.student* %32
}

; Function Attrs: inaccessiblememonly mustprogress nofree nounwind willreturn
declare noalias noundef align 16 i8* @malloc(i64 noundef) local_unnamed_addr #1

; Function Attrs: nofree nounwind
declare noundef i32 @__isoc99_scanf(i8* nocapture noundef readonly, ...) local_unnamed_addr #2

; Function Attrs: argmemonly mustprogress nofree nounwind readonly willreturn
declare i64 @strlen(i8* nocapture) local_unnamed_addr #3

; Function Attrs: nofree nounwind sspstrong uwtable
define dso_local void @main() local_unnamed_addr #0 {
  %1 = tail call %struct.student* @creat()
  %2 = icmp eq %struct.student* %1, null
  br i1 %2, label %18, label %3

3:                                                ; preds = %0, %3
  %4 = phi %struct.student* [ %16, %3 ], [ %1, %0 ]
  %5 = getelementptr inbounds %struct.student, %struct.student* %4, i64 0, i32 0, i64 0
  %6 = getelementptr inbounds %struct.student, %struct.student* %4, i64 0, i32 1, i64 0
  %7 = getelementptr inbounds %struct.student, %struct.student* %4, i64 0, i32 2
  %8 = load i8, i8* %7, align 8, !tbaa !11
  %9 = sext i8 %8 to i32
  %10 = getelementptr inbounds %struct.student, %struct.student* %4, i64 0, i32 3
  %11 = load i32, i32* %10, align 4, !tbaa !14
  %12 = getelementptr inbounds %struct.student, %struct.student* %4, i64 0, i32 4, i64 0
  %13 = getelementptr inbounds %struct.student, %struct.student* %4, i64 0, i32 5, i64 0
  %14 = tail call i32 (i8*, ...) @printf(i8* nonnull dereferenceable(1) getelementptr inbounds ([19 x i8], [19 x i8]* @.str.1, i64 0, i64 0), i8* %5, i8* nonnull %6, i32 %9, i32 %11, i8* nonnull %12, i8* nonnull %13)
  %15 = getelementptr inbounds %struct.student, %struct.student* %4, i64 0, i32 6
  %16 = load %struct.student*, %struct.student** %15, align 8, !tbaa !15
  %17 = icmp eq %struct.student* %16, null
  br i1 %17, label %18, label %3, !llvm.loop !16

18:                                               ; preds = %3, %0
  ret void
}

; Function Attrs: nofree nounwind
declare noundef i32 @printf(i8* nocapture noundef readonly, ...) local_unnamed_addr #2


!llvm.module.flags = !{!0, !1, !2, !3}
!llvm.ident = !{!4}

!0 = !{i32 1, !"wchar_size", i32 4}
!1 = !{i32 7, !"PIC Level", i32 2}
!2 = !{i32 7, !"PIE Level", i32 2}
!3 = !{i32 7, !"uwtable", i32 1}
!4 = !{!"clang version 13.0.0"}
!5 = !{!6, !6, i64 0}
!6 = !{!"int", !7, i64 0}
!7 = !{!"omnipotent char", !8, i64 0}
!8 = !{!"Simple C/C++ TBAA"}
!9 = distinct !{!9, !10}
!10 = !{!"llvm.loop.mustprogress"}
!11 = !{!12, !7, i64 40}
!12 = !{!"student", !7, i64 0, !7, i64 20, !7, i64 40, !6, i64 44, !7, i64 48, !7, i64 68, !13, i64 104}
!13 = !{!"any pointer", !7, i64 0}
!14 = !{!12, !6, i64 44}
!15 = !{!12, !13, i64 104}
!16 = distinct !{!16, !10}
